Certificate:
    Data:
        Version: 3 (0x2)
        Serial Number: 32 (0x20)
        Signature Algorithm: sha256WithRSAEncryption
        Issuer: C=RU, ST=SVERDLOVSK REGION, L=YEKATERINBURG, O=iBLOG.PRO, OU=iBLOG.PRO, CN=iBLOG.PRO CA/emailAddress=vorlon@iblog.pro
        Validity
            Not Before: May  6 08:58:25 2023 GMT
            Not After : May  5 08:58:25 2024 GMT
        Subject: C=RU, ST=SVERDLOVSK REGION, L=YEKATERINBURG, O=iBLOG.PRO, CN=*.iblog.pro
        Subject Public Key Info:
            Public Key Algorithm: rsaEncryption
                Public-Key: (2048 bit)
                Modulus:
                    00:ba:af:43:e9:a4:57:f6:be:a9:88:d1:6f:1e:84:
                    2e:d6:da:30:56:7d:4c:67:d9:fb:af:89:cb:d3:ab:
                    e8:40:66:7f:95:d5:8a:85:ee:f8:44:be:7f:2d:1b:
                    f9:b3:3c:74:79:2b:c2:f3:5f:ce:dd:94:fc:9f:f7:
                    1f:ff:19:61:dd:7c:9f:d4:b7:98:82:27:9f:d8:f5:
                    d5:bc:04:a2:f8:9c:a0:a7:3f:c6:c4:5e:f0:58:0a:
                    77:bd:54:fe:8a:9d:91:64:5b:09:9b:8d:db:07:d8:
                    d7:9e:26:69:86:64:e2:cd:59:80:09:28:4e:e7:7f:
                    72:92:28:22:9e:5a:91:34:c0:85:49:12:ed:03:f5:
                    c7:d3:b8:17:c2:02:72:9a:f0:96:7d:1a:f7:a5:14:
                    07:14:0b:59:ce:b9:dd:a8:b9:4d:ad:dd:20:fd:dd:
                    ee:6f:89:a9:a2:1b:74:d7:bc:62:49:09:d8:81:1e:
                    4c:49:74:31:91:fe:2b:11:36:18:44:fb:68:cc:e1:
                    31:5b:d0:dc:3f:dd:79:f6:05:2e:7a:96:ee:50:33:
                    b0:2c:2c:7e:4f:5c:fa:a5:48:32:1f:5c:d4:16:34:
                    ac:1d:a6:9e:5f:c0:4f:30:cd:16:69:ac:05:8c:cb:
                    61:50:fe:f9:a0:1b:99:88:ab:56:74:ff:d4:39:23:
                    a4:cf
                Exponent: 65537 (0x10001)
        X509v3 extensions:
            X509v3 Subject Key Identifier: 
                85:65:D0:02:BD:5A:D2:FF:BF:69:9B:51:5F:31:79:2B:5C:57:F4:19
            X509v3 Authority Key Identifier: 
                8F:44:62:7E:84:A5:3F:F3:B2:6B:C0:6F:60:23:FB:ED:2A:22:11:E7
            X509v3 Basic Constraints: 
                CA:FALSE
            X509v3 Key Usage: 
                Digital Signature, Key Encipherment
            X509v3 Extended Key Usage: 
                TLS Web Server Authentication
            X509v3 Subject Alternative Name: 
                DNS:*.iblog.pro
            Netscape Comment: 
                OpenSSL Generated Certificate
    Signature Algorithm: sha256WithRSAEncryption
    Signature Value:
        ba:1d:d0:16:2f:b2:44:c7:bb:02:24:b3:7d:e2:30:e3:a4:b7:
        44:c1:a7:14:ba:71:3b:49:62:18:8e:95:5f:6f:cb:63:f2:6f:
        06:1a:92:4a:c8:cc:d1:f8:b9:e0:35:75:b3:07:64:80:f2:da:
        8a:25:4f:66:a5:72:12:cd:68:a1:d7:96:ab:be:38:8d:d4:5c:
        7d:b9:a6:65:ce:2c:c7:10:3e:b1:77:f0:0d:86:37:18:02:30:
        0b:e1:c5:92:fe:10:64:d4:4a:57:70:94:9b:1b:4e:83:13:7a:
        35:f7:2f:16:39:4e:45:59:d1:27:d2:18:7b:e9:af:d0:c8:3a:
        31:8d:af:c7:08:06:c2:0d:37:f9:06:dc:6a:07:11:4a:72:3d:
        ff:8d:4d:9e:00:01:09:3a:8a:88:c2:f0:c3:3a:92:d2:fe:8e:
        b2:cd:ca:55:3f:8d:53:af:57:69:0f:58:27:99:dd:7f:2a:e0:
        78:6c:1b:bd:fe:e3:88:0f:3d:16:20:b5:87:5f:69:65:fb:99:
        82:16:f2:a9:1d:48:02:c4:a1:dc:5f:f6:cf:fe:d6:34:4d:2b:
        b6:c8:2b:17:06:f4:df:e5:49:29:e4:27:ae:3e:3d:7c:f2:9d:
        36:86:62:91:a8:65:8c:53:02:60:cc:82:ca:02:fc:b3:3a:cb:
        79:7e:ec:ca:05:ae:e5:36:a7:bd:a0:02:27:2a:21:a4:c2:a2:
        2d:32:8a:ee:60:eb:ac:c4:8a:06:4d:2c:b8:89:c5:9a:ed:76:
        11:8c:12:0a:de:d9:fb:a5:50:12:5a:3f:e2:8b:58:98:06:c3:
        9a:8d:47:2d:83:ad:06:c9:a8:98:1d:ef:3f:31:9f:56:3d:a0:
        fd:cf:11:08:a0:e1:1f:73:9d:94:d5:69:6e:f2:24:5c:fe:c9:
        7a:6f:12:a4:51:09:bf:62:05:2a:ea:d2:7d:5c:b0:8e:b5:2d:
        a9:06:2e:96:01:75:5e:1a:b0:51:d9:f8:1c:52:3e:9a:d6:03:
        64:11:9c:eb:c2:64:8d:3b:f5:79:bd:c0:55:42:bc:52:1a:37:
        14:4d:17:22:82:35:ea:56:21:0d:3b:6a:21:aa:f2:9c:33:d6:
        e4:08:29:9f:b7:ac:5a:49:24:c6:30:70:e3:3b:51:ab:0a:ca:
        08:fa:e3:de:99:7e:fc:a0:35:c0:eb:eb:f8:4d:79:8a:a8:1a:
        e5:96:eb:4e:b0:e2:6c:28:b4:6a:f1:94:00:b4:2a:29:7c:22:
        6f:8a:28:43:c7:ae:0e:43:52:ad:bd:41:4d:f5:5e:53:fd:d2:
        01:ed:c3:d0:15:29:ee:7d:82:dc:30:55:e9:06:59:a7:91:8d:
        49:80:ef:a3:2f:43:e5:ed
-----BEGIN CERTIFICATE-----
MIIFPzCCAyegAwIBAgIBIDANBgkqhkiG9w0BAQsFADCBoTELMAkGA1UEBhMCUlUx
GjAYBgNVBAgMEVNWRVJETE9WU0sgUkVHSU9OMRYwFAYDVQQHDA1ZRUtBVEVSSU5C
VVJHMRIwEAYDVQQKDAlpQkxPRy5QUk8xEjAQBgNVBAsMCWlCTE9HLlBSTzEVMBMG
A1UEAwwMaUJMT0cuUFJPIENBMR8wHQYJKoZIhvcNAQkBFhB2b3Jsb25AaWJsb2cu
cHJvMB4XDTIzMDUwNjA4NTgyNVoXDTI0MDUwNTA4NTgyNVowazELMAkGA1UEBhMC
UlUxGjAYBgNVBAgMEVNWRVJETE9WU0sgUkVHSU9OMRYwFAYDVQQHDA1ZRUtBVEVS
SU5CVVJHMRIwEAYDVQQKDAlpQkxPRy5QUk8xFDASBgNVBAMMCyouaWJsb2cucHJv
MIIBIjANBgkqhkiG9w0BAQEFAAOCAQ8AMIIBCgKCAQEAuq9D6aRX9r6piNFvHoQu
1towVn1MZ9n7r4nL06voQGZ/ldWKhe74RL5/LRv5szx0eSvC81/O3ZT8n/cf/xlh
3Xyf1LeYgief2PXVvASi+Jygpz/GxF7wWAp3vVT+ip2RZFsJm43bB9jXniZphmTi
zVmACShO539ykiginlqRNMCFSRLtA/XH07gXwgJymvCWfRr3pRQHFAtZzrndqLlN
rd0g/d3ub4mpoht017xiSQnYgR5MSXQxkf4rETYYRPtozOExW9DcP9159gUuepbu
UDOwLCx+T1z6pUgyH1zUFjSsHaaeX8BPMM0WaawFjMthUP75oBuZiKtWdP/UOSOk
zwIDAQABo4G2MIGzMB0GA1UdDgQWBBSFZdACvVrS/79pm1FfMXkrXFf0GTAfBgNV
HSMEGDAWgBSPRGJ+hKU/87JrwG9gI/vtKiIR5zAJBgNVHRMEAjAAMAsGA1UdDwQE
AwIFoDATBgNVHSUEDDAKBggrBgEFBQcDATAWBgNVHREEDzANggsqLmlibG9nLnBy
bzAsBglghkgBhvhCAQ0EHxYdT3BlblNTTCBHZW5lcmF0ZWQgQ2VydGlmaWNhdGUw
DQYJKoZIhvcNAQELBQADggIBALod0BYvskTHuwIks33iMOOkt0TBpxS6cTtJYhiO
lV9vy2PybwYakkrIzNH4ueA1dbMHZIDy2oolT2alchLNaKHXlqu+OI3UXH25pmXO
LMcQPrF38A2GNxgCMAvhxZL+EGTUSldwlJsbToMTejX3LxY5TkVZ0SfSGHvpr9DI
OjGNr8cIBsINN/kG3GoHEUpyPf+NTZ4AAQk6iojC8MM6ktL+jrLNylU/jVOvV2kP
WCeZ3X8q4HhsG73+44gPPRYgtYdfaWX7mYIW8qkdSALEodxf9s/+1jRNK7bIKxcG
9N/lSSnkJ64+PXzynTaGYpGoZYxTAmDMgsoC/LM6y3l+7MoFruU2p72gAicqIaTC
oi0yiu5g66zEigZNLLiJxZrtdhGMEgre2fulUBJaP+KLWJgGw5qNRy2DrQbJqJgd
7z8xn1Y9oP3PEQig4R9znZTVaW7yJFz+yXpvEqRRCb9iBSrq0n1csI61LakGLpYB
dV4asFHZ+BxSPprWA2QRnOvCZI079Xm9wFVCvFIaNxRNFyKCNepWIQ07aiGq8pwz
1uQIKZ+3rFpJJMYwcOM7UasKygj6496ZfvygNcDr6/hNeYqoGuWW606w4mwotGrx
lAC0Kil8Im+KKEPHrg5DUq29QU31XlP90gHtw9AVKe59gtwwVekGWaeRjUmA76Mv
Q+Xt
-----END CERTIFICATE-----
-----BEGIN CERTIFICATE-----
MIIGMjCCBBqgAwIBAgIUBfx7miRnbXeaPjDnOTnYXY3AUCUwDQYJKoZIhvcNAQEL
BQAwgaExCzAJBgNVBAYTAlJVMRowGAYDVQQIDBFTVkVSRExPVlNLIFJFR0lPTjEW
MBQGA1UEBwwNWUVLQVRFUklOQlVSRzESMBAGA1UECgwJaUJMT0cuUFJPMRIwEAYD
VQQLDAlpQkxPRy5QUk8xFTATBgNVBAMMDGlCTE9HLlBSTyBDQTEfMB0GCSqGSIb3
DQEJARYQdm9ybG9uQGlibG9nLnBybzAeFw0yMTA1MTUyMDIwMjZaFw0yOTA4MDEy
MDIwMjZaMIGhMQswCQYDVQQGEwJSVTEaMBgGA1UECAwRU1ZFUkRMT1ZTSyBSRUdJ
T04xFjAUBgNVBAcMDVlFS0FURVJJTkJVUkcxEjAQBgNVBAoMCWlCTE9HLlBSTzES
MBAGA1UECwwJaUJMT0cuUFJPMRUwEwYDVQQDDAxpQkxPRy5QUk8gQ0ExHzAdBgkq
hkiG9w0BCQEWEHZvcmxvbkBpYmxvZy5wcm8wggIiMA0GCSqGSIb3DQEBAQUAA4IC
DwAwggIKAoICAQDkgmi9dRgBUVy5QjzEM5qyaCC8ekFMxqZan5sre+6/D6CKN6Nl
xTKsI4U6p2SNf2BdCwRM3DdvcrUnpkDomIy1YUNmMX3CM/Ut6XKiFijbNCzswoPB
3ePYmDYwnOhombE0CXS6K0r+piI3PEIJwDfzoXz6SgSosOAyDc6oe7D5ncEpU8J2
F+MtuD+pCg58noLfo+KP2aLiOJth7JKCG0Rw1oc0AFtmJifnJ4V95l02ApsqoOqe
OIvSbNdu10WmYza7xctKtBBl7uR/TyAhH2Fy7ei429KdPV8KIbU/5JVlgEDUTaf2
e7aAyzduryG8IAfFP4U4DCq3X6swZvoZyy6MDVt77sDWhX/FaziEsAfSibGDcNTQ
CF1FxbACtdIwoZZxhkSPockb6cMPk1TCyasIcX8a5k/25BjYVClvz4ZWziN2+13o
itT06luvWgbRj5W6EibU8J2e6dcysuDH3Myp2EYkiDpL7f50MI2mzH1jonB15ftz
kkBX/1aVfQnhsXsvYPUln0Q+m3XsE0Lnfxt3bE8Y4peYjz34C3FyJl3wkqC+Adzp
rOxoHbDxOHGiGg2VhaB+3ZynK6PUF61Sq0bNmmSwIDekkWoQOJJ396mQEFGuE312
PkrqZJRUmDrby+Z7O0GhFjToOsW/SImQoo09QDGsZOwi+q4zp8ntl4DMBQIDAQAB
o2AwXjAdBgNVHQ4EFgQUj0RifoSlP/Oya8BvYCP77SoiEecwHwYDVR0jBBgwFoAU
j0RifoSlP/Oya8BvYCP77SoiEecwDwYDVR0TAQH/BAUwAwEB/zALBgNVHQ8EBAMC
AQYwDQYJKoZIhvcNAQELBQADggIBAKGWF+0s2ue0Loq/fxBSUgUunVI4TGSlDFPp
jMQP6fP7+XkC2TLtJDYgEJXIEnchit/XCXoG3BfVswutjBX4HIn24U0nt02BF63b
s/9ZfDT1Yd2zHeH1PRM8k6IbjdxTQAV4sNB0cSV56ZSI7aiMpc2EgAIdGXglxyjQ
3YrxwC1wr0x/gKgeFtusEgQnQrm9ktJg3y7y80hBFj5Fy3vQRymZRvqTqf6uE4LD
MRiTJyR9C6cNMzq6wBKGpyhH90PWIUgT1Tp/ls8ZbHTN1QJXp+NH90lm2qe4sHDV
jX1tA1HTmqHwAy3Jch7Tz4OlrKAJbyB4A3tU98F4pdORUhQfNTSqezH6AACZX209
harJl4h1m5CmS9PWlUjDr5rIHTzssPmov2YvBIIP1Rx0o0NJEttmAFsXtglcCVJQ
xRcCKku3bodx+C8Iafb4kl70vbFC4b0KR+JLhyRG59oaekEY/2dLM62N7JTyIq3i
8SPQw22zNzsYtpUBWlUrZCWE9fw6yu/UJBOj6amSqvDOHPg+Y7PhJafuSuotVQUg
QJu6pbnFIM51M0LjoVXzt1k3rqpNgXa0J6yXmc5b7FUdpXf7dffI6KyjVHe9mBra
iUm0YsoSnVsTEuWLIza856ETju+t+kNNJj01Lk5s7Q7BWMi/qeU5A27SIu56K/we
M/G+UfDX
-----END CERTIFICATE-----
